target datalayout = "e-m:e-p270:32:32-p271:32:32-p272:64:64-i64:64-i128:128-f80:128-n8:16:32:64-S128"
target triple = "x86_64-pc-linux-gnu"

; Function Attrs: null_pointer_is_valid sspstrong uwtable
define internal i32 @my_tvb_strsize(ptr noundef %0, i32 noundef %1) #0 {
  %3 = alloca ptr, align 8
  %4 = alloca i32, align 4
  %5 = alloca i32, align 4
  store ptr %0, ptr %3, align 8
  store i32 %1, ptr %4, align 4
  call void @llvm.lifetime.start.p0(i64 4, ptr %5) #11
  %6 = load ptr, ptr %3, align 8
  %7 = load i32, ptr %4, align 4
  %8 = call i32 @tvb_strnlen(ptr noundef %6, i32 noundef %7, i32 noundef -1)
  store i32 %8, ptr %5, align 4
  %9 = load i32, ptr %5, align 4
  %10 = icmp eq i32 %9, -1
  br i1 %10, label %11, label %15

11:                                               ; preds = %2
  %12 = load ptr, ptr %3, align 8
  %13 = load i32, ptr %4, align 4
  %14 = call i32 @tvb_reported_length_remaining(ptr noundef %12, i32 noundef %13)
  store i32 %14, ptr %5, align 4
  br label %18

15:                                               ; preds = %2
  %16 = load i32, ptr %5, align 4
  %17 = add i32 %16, 1
  store i32 %17, ptr %5, align 4
  br label %18

18:                                               ; preds = %15, %11
  %19 = load i32, ptr %5, align 4
  call void @llvm.lifetime.end.p0(i64 4, ptr %5) #11
  ret i32 %19
}