; Function Attrs: null_pointer_is_valid sspstrong uwtable
define internal fastcc i32 @my_tvb_strsize(ptr noundef %0, i32 noundef %1) unnamed_addr #0 {
  %3 = tail call i32 @tvb_strnlen(ptr noundef %0, i32 noundef %1, i32 noundef -1)
  %4 = icmp eq i32 %3, -1
  br i1 %4, label %5, label %7

5:                                                ; preds = %2
  %6 = tail call i32 @tvb_reported_length_remaining(ptr noundef %0, i32 noundef %1)
  br label %9

7:                                                ; preds = %2
  %8 = add nuw i32 %3, 1
  br label %9

9:                                                ; preds = %7, %5
  %.0 = phi i32 [ %6, %5 ], [ %8, %7 ]
  ret i32 %.0
}